target datalayout = "e-m:e-p270:32:32-p271:32:32-p272:64:64-i64:64-i128:128-f80:128-n8:16:32:64-S128"
target triple = "x86_64-pc-linux-gnu"

%struct.rb_vm_struct = type { i64, %struct.anon.5, ptr, i64, %struct.ccan_list_head, i32, i8, i64, ptr, [5 x i64], i64, i64, i64, i64, i64, i64, i64, i64, i64, ptr, ptr, ptr, %struct.anon.9, ptr, i32, %struct.ccan_list_head, %union.pthread_mutex_t, i64, i64, i64, i64, i32, %struct.anon.10, ptr, ptr, ptr, ptr, ptr, ptr, ptr, ptr, i64, [1023 x ptr], %struct.anon.11 }
%struct.anon.5 = type { %struct.ccan_list_head, i32, i32, ptr, ptr, %struct.anon.6, %struct.anon.8 }
%struct.anon.6 = type { %union.pthread_mutex_t, ptr, i32, %union.pthread_cond_t, i8 }
%union.pthread_cond_t = type { %struct.__pthread_cond_s }
%struct.__pthread_cond_s = type { %union.__atomic_wide_counter, %union.__atomic_wide_counter, [2 x i32], [2 x i32], i32, i32, [2 x i32] }
%union.__atomic_wide_counter = type { i64 }
%struct.anon.8 = type { %union.pthread_mutex_t, ptr, i8, %union.pthread_cond_t, i32, i32, i32, i32, %struct.ccan_list_head, i32, %struct.ccan_list_head, %struct.ccan_list_head, %struct.ccan_list_head, i8, %union.pthread_cond_t, %union.pthread_cond_t, i8, i32, i32 }
%struct.anon.9 = type { [65 x i64] }
%struct.ccan_list_head = type { %struct.ccan_list_node }
%struct.ccan_list_node = type { ptr, ptr }
%union.pthread_mutex_t = type { %struct.__pthread_mutex_s }
%struct.__pthread_mutex_s = type { i32, i32, i32, i32, i32, i16, i16, %struct.__pthread_internal_list }
%struct.__pthread_internal_list = type { ptr, ptr }
%struct.anon.10 = type { ptr, ptr }
%struct.anon.11 = type { i64, i64, i64, i64 }

@.str = private unnamed_addr constant [45 x i8] c"unexpected situation - recordd:%u current:%u\00", align 1
@.str.1 = private unnamed_addr constant [13 x i8] c"../vm_sync.c\00", align 1
@ruby_current_vm_ptr = external global ptr, align 8
@ruby_single_main_ractor = external global ptr, align 8

; Function Attrs: nounwind sspstrong uwtable
define internal void @vm_lock_leave(ptr noundef %0, ptr noundef %1) #0 {
  %3 = alloca ptr, align 8
  %4 = alloca ptr, align 8
  store ptr %0, ptr %3, align 8, !tbaa !7
  store ptr %1, ptr %4, align 8, !tbaa !37
  %5 = load ptr, ptr %3, align 8, !tbaa !7
  %6 = getelementptr inbounds nuw %struct.rb_vm_struct, ptr %5, i32 0, i32 1
  %7 = getelementptr inbounds nuw %struct.anon.5, ptr %6, i32 0, i32 5
  %8 = getelementptr inbounds nuw %struct.anon.6, ptr %7, i32 0, i32 2
  %9 = load i32, ptr %8, align 8, !tbaa !69
  %10 = add i32 %9, -1
  store i32 %10, ptr %8, align 8, !tbaa !69
  %11 = load ptr, ptr %3, align 8, !tbaa !7
  %12 = getelementptr inbounds nuw %struct.rb_vm_struct, ptr %11, i32 0, i32 1
  %13 = getelementptr inbounds nuw %struct.anon.5, ptr %12, i32 0, i32 5
  %14 = getelementptr inbounds nuw %struct.anon.6, ptr %13, i32 0, i32 2
  %15 = load i32, ptr %14, align 8, !tbaa !69
  %16 = load ptr, ptr %4, align 8, !tbaa !37
  store i32 %15, ptr %16, align 4, !tbaa !70
  %17 = load ptr, ptr %3, align 8, !tbaa !7
  %18 = getelementptr inbounds nuw %struct.rb_vm_struct, ptr %17, i32 0, i32 1
  %19 = getelementptr inbounds nuw %struct.anon.5, ptr %18, i32 0, i32 5
  %20 = getelementptr inbounds nuw %struct.anon.6, ptr %19, i32 0, i32 2
  %21 = load i32, ptr %20, align 8, !tbaa !69
  %22 = icmp eq i32 %21, 0
  br i1 %22, label %23, label %32

23:                                               ; preds = %2
  %24 = load ptr, ptr %3, align 8, !tbaa !7
  %25 = getelementptr inbounds nuw %struct.rb_vm_struct, ptr %24, i32 0, i32 1
  %26 = getelementptr inbounds nuw %struct.anon.5, ptr %25, i32 0, i32 5
  %27 = getelementptr inbounds nuw %struct.anon.6, ptr %26, i32 0, i32 1
  store ptr null, ptr %27, align 8, !tbaa !12
  %28 = load ptr, ptr %3, align 8, !tbaa !7
  %29 = getelementptr inbounds nuw %struct.rb_vm_struct, ptr %28, i32 0, i32 1
  %30 = getelementptr inbounds nuw %struct.anon.5, ptr %29, i32 0, i32 5
  %31 = getelementptr inbounds nuw %struct.anon.6, ptr %30, i32 0, i32 0
  call void @rb_native_mutex_unlock(ptr noundef %31)
  br label %32

32:                                               ; preds = %23, %2
  ret void
}

; Function Attrs: inlinehint nounwind sspstrong uwtable
define internal ptr @rb_current_vm() #1 {
  %1 = load ptr, ptr @ruby_current_vm_ptr, align 8, !tbaa !7
  ret ptr %1
}

; Function Attrs: nounwind sspstrong uwtable
define hidden void @rb_vm_lock_leave_body(ptr noundef %0) #0 {
  %2 = alloca ptr, align 8
  store ptr %0, ptr %2, align 8, !tbaa !37
  %3 = call ptr @rb_current_vm()
  %4 = load ptr, ptr %2, align 8, !tbaa !37
  call void @vm_lock_leave(ptr noundef %3, ptr noundef %4)
  ret void
}

; Function Attrs: inlinehint nounwind sspstrong uwtable
define internal zeroext i1 @rb_multi_ractor_p() #1 {
  %1 = alloca i1, align 1
  %2 = load ptr, ptr @ruby_single_main_ractor, align 8, !tbaa !39
  %3 = icmp ne ptr %2, null
  %4 = xor i1 %3, true
  %5 = xor i1 %4, true
  %6 = zext i1 %5 to i32
  %7 = sext i32 %6 to i64
  %8 = call i64 @llvm.expect.i64(i64 %7, i64 1)
  %9 = icmp ne i64 %8, 0
  br i1 %9, label %10, label %11

10:                                               ; preds = %0
  store i1 false, ptr %1, align 1
  br label %12

11:                                               ; preds = %0
  store i1 true, ptr %1, align 1
  br label %12

12:                                               ; preds = %11, %10
  %13 = load i1, ptr %1, align 1
  ret i1 %13
}

; Function Attrs: inlinehint nounwind sspstrong uwtable
define internal void @rb_vm_lock_leave(ptr noundef %0, ptr noundef %1, i32 noundef %2) #1 {
  %4 = alloca ptr, align 8
  %5 = alloca ptr, align 8
  %6 = alloca i32, align 4
  store ptr %0, ptr %4, align 8, !tbaa !37
  store ptr %1, ptr %5, align 8, !tbaa !74
  store i32 %2, ptr %6, align 4, !tbaa !70
  %7 = call zeroext i1 @rb_multi_ractor_p()
  br i1 %7, label %8, label %10

8:                                                ; preds = %3
  %9 = load ptr, ptr %4, align 8, !tbaa !37
  call void @rb_vm_lock_leave_body(ptr noundef %9)
  br label %10

10:                                               ; preds = %8, %3
  ret void
}

; Function Attrs: nounwind sspstrong uwtable
define hidden void @rb_ec_vm_lock_rec_release(ptr noundef %0, i32 noundef %1, i32 noundef %2) #0 {
  %4 = alloca ptr, align 8
  %5 = alloca i32, align 4
  %6 = alloca i32, align 4
  store ptr %0, ptr %4, align 8, !tbaa !43
  store i32 %1, ptr %5, align 4, !tbaa !70
  store i32 %2, ptr %6, align 4, !tbaa !70
  %7 = load i32, ptr %5, align 4, !tbaa !70
  %8 = load i32, ptr %6, align 4, !tbaa !70
  %9 = icmp ugt i32 %7, %8
  %10 = xor i1 %9, true
  %11 = xor i1 %10, true
  %12 = zext i1 %11 to i32
  %13 = sext i32 %12 to i64
  %14 = call i64 @llvm.expect.i64(i64 %13, i64 0)
  %15 = icmp ne i64 %14, 0
  br i1 %15, label %16, label %19

16:                                               ; preds = %3
  %17 = load i32, ptr %5, align 4, !tbaa !70
  %18 = load i32, ptr %6, align 4, !tbaa !70
  call void (ptr, ...) @rb_bug(ptr noundef @.str, i32 noundef %17, i32 noundef %18) #11
  unreachable

19:                                               ; preds = %3
  br label %20

20:                                               ; preds = %24, %19
  %21 = load i32, ptr %5, align 4, !tbaa !70
  %22 = load i32, ptr %6, align 4, !tbaa !70
  %23 = icmp ult i32 %21, %22
  br i1 %23, label %24, label %25

24:                                               ; preds = %20
  call void @rb_vm_lock_leave(ptr noundef %6, ptr noundef @.str.1, i32 noundef 245)
  br label %20, !llvm.loop !73

25:                                               ; preds = %20
  br label %26

26:                                               ; preds = %25
  ret void
}