; Function Attrs: nounwind sspstrong uwtable
define hidden void @rb_ec_vm_lock_rec_release(ptr noundef readnone captures(none) %0, i32 noundef %1, i32 noundef %2) local_unnamed_addr #2 {
  %4 = icmp ugt i32 %1, %2
  br i1 %4, label %10, label %.preheader, !prof !83

.preheader:                                       ; preds = %3
  %5 = icmp ult i32 %1, %2
  br i1 %5, label %.lr.ph, label %._crit_edge

.lr.ph:                                           ; preds = %.preheader
  %6 = load ptr, ptr @ruby_single_main_ractor, align 8, !tbaa !37
  %7 = icmp eq ptr %6, null
  br i1 %7, label %.lr.ph.split.preheader, label %rb_vm_lock_leave.exit.us

.lr.ph.split.preheader:                           ; preds = %.lr.ph
  %8 = load ptr, ptr @ruby_current_vm_ptr, align 8
  %9 = getelementptr inbounds nuw i8, ptr %8, i64 96
  %.promoted = load i32, ptr %9, align 8, !tbaa !61
  br label %.lr.ph.split

rb_vm_lock_leave.exit.us:                         ; preds = %.lr.ph, %rb_vm_lock_leave.exit.us
  br label %rb_vm_lock_leave.exit.us

10:                                               ; preds = %3
  tail call void (ptr, ...) @rb_bug(ptr noundef nonnull @.str, i32 noundef %1, i32 noundef %2) #9
  unreachable

.lr.ph.split:                                     ; preds = %rb_vm_lock_leave.exit, %.lr.ph.split.preheader
  %11 = phi i32 [ %12, %rb_vm_lock_leave.exit ], [ %.promoted, %.lr.ph.split.preheader ]
  %12 = add i32 %11, -1
  %13 = icmp eq i32 %12, 0
  br i1 %13, label %rb_vm_lock_leave.exit.thread, label %rb_vm_lock_leave.exit

rb_vm_lock_leave.exit.thread:                     ; preds = %.lr.ph.split
  store i32 %12, ptr %9, align 8, !tbaa !61
  %14 = getelementptr inbounds nuw i8, ptr %8, i64 48
  %15 = getelementptr inbounds nuw i8, ptr %8, i64 88
  store ptr null, ptr %15, align 8, !tbaa !12
  tail call void @rb_native_mutex_unlock(ptr noundef nonnull %14) #7
  br label %._crit_edge

rb_vm_lock_leave.exit:                            ; preds = %.lr.ph.split
  %16 = icmp ult i32 %1, %12
  br i1 %16, label %.lr.ph.split, label %._crit_edge.loopexit, !llvm.loop !84

._crit_edge.loopexit:                             ; preds = %rb_vm_lock_leave.exit
  store i32 %12, ptr %9, align 8, !tbaa !61
  br label %._crit_edge

._crit_edge:                                      ; preds = %._crit_edge.loopexit, %rb_vm_lock_leave.exit.thread, %.preheader
  ret void
}